; ModuleID = '19/438.c'
source_filename = "19/438.c"
target datalayout = "e-m:e-p270:32:32-p271:32:32-p272:64:64-i64:64-f80:128-n8:16:32:64-S128"
target triple = "x86_64-pc-linux-gnu"

@.str = private unnamed_addr constant [2 x i8] c" \00", align 1
@.str.1 = private unnamed_addr constant [3 x i8] c"%s\00", align 1
@.str.2 = private unnamed_addr constant [2 x i8] c"\0A\00", align 1

; Function Attrs: noinline nounwind uwtable
define dso_local void @main() #0 {
  %1 = alloca i32, align 4
  %2 = alloca i32, align 4
  %3 = alloca i32, align 4
  %4 = alloca [100 x i8], align 16
  %5 = alloca [100 x i8], align 16
  %6 = alloca [100 x i8], align 16
  %7 = alloca [100 x [100 x i8]], align 16
  %8 = alloca i8*, align 8
  %9 = alloca i8*, align 8
  %10 = alloca i8*, align 8
  %11 = alloca [100 x i8]*, align 8
  %12 = alloca i32, align 4
  %13 = alloca i32, align 4
  %14 = alloca i32, align 4
  %15 = alloca i32, align 4
  %16 = bitcast [100 x i8]* %4 to i8*
  call void @llvm.memset.p0i8.i64(i8* align 16 %16, i8 0, i64 100, i1 false)
  %17 = bitcast [100 x i8]* %5 to i8*
  call void @llvm.memset.p0i8.i64(i8* align 16 %17, i8 0, i64 100, i1 false)
  %18 = bitcast [100 x i8]* %6 to i8*
  call void @llvm.memset.p0i8.i64(i8* align 16 %18, i8 0, i64 100, i1 false)
  %19 = bitcast [100 x [100 x i8]]* %7 to i8*
  call void @llvm.memset.p0i8.i64(i8* align 16 %19, i8 0, i64 10000, i1 false)
  %20 = getelementptr inbounds [100 x i8], [100 x i8]* %4, i64 0, i64 0
  %21 = call i32 (i8*, ...) bitcast (i32 (...)* @gets to i32 (i8*, ...)*)(i8* %20)
  %22 = getelementptr inbounds [100 x i8], [100 x i8]* %5, i64 0, i64 0
  %23 = call i32 (i8*, ...) bitcast (i32 (...)* @gets to i32 (i8*, ...)*)(i8* %22)
  %24 = getelementptr inbounds [100 x i8], [100 x i8]* %6, i64 0, i64 0
  %25 = call i32 (i8*, ...) bitcast (i32 (...)* @gets to i32 (i8*, ...)*)(i8* %24)
  %26 = getelementptr inbounds [100 x i8], [100 x i8]* %4, i64 0, i64 0
  store i8* %26, i8** %9, align 8
  %27 = getelementptr inbounds [100 x i8], [100 x i8]* %5, i64 0, i64 0
  store i8* %27, i8** %10, align 8
  %28 = getelementptr inbounds [100 x i8], [100 x i8]* %6, i64 0, i64 0
  store i8* %28, i8** %8, align 8
  %29 = getelementptr inbounds [100 x [100 x i8]], [100 x [100 x i8]]* %7, i64 0, i64 0
  store [100 x i8]* %29, [100 x i8]** %11, align 8
  store i32 0, i32* %12, align 4
  %30 = getelementptr inbounds [100 x i8], [100 x i8]* %6, i64 0, i64 0
  %31 = call i64 @strlen(i8* %30) #4
  %32 = trunc i64 %31 to i32
  store i32 %32, i32* %13, align 4
  store i32 0, i32* %1, align 4
  br label %33

33:                                               ; preds = %103, %0
  store i32 0, i32* %2, align 4
  br label %34

34:                                               ; preds = %80, %33
  %35 = load i8*, i8** %9, align 8
  %36 = load i32, i32* %12, align 4
  %37 = sext i32 %36 to i64
  %38 = getelementptr inbounds i8, i8* %35, i64 %37
  %39 = load i8, i8* %38, align 1
  %40 = sext i8 %39 to i32
  %41 = icmp ne i32 %40, 32
  br i1 %41, label %42, label %83

42:                                               ; preds = %34
  %43 = load i8*, i8** %9, align 8
  %44 = load i32, i32* %12, align 4
  %45 = sext i32 %44 to i64
  %46 = getelementptr inbounds i8, i8* %43, i64 %45
  %47 = load i8, i8* %46, align 1
  %48 = sext i8 %47 to i32
  %49 = icmp eq i32 %48, 0
  br i1 %49, label %50, label %64

50:                                               ; preds = %42
  %51 = load i8*, i8** %9, align 8
  %52 = load i32, i32* %12, align 4
  %53 = sext i32 %52 to i64
  %54 = getelementptr inbounds i8, i8* %51, i64 %53
  %55 = load i8, i8* %54, align 1
  %56 = load [100 x i8]*, [100 x i8]** %11, align 8
  %57 = load i32, i32* %1, align 4
  %58 = sext i32 %57 to i64
  %59 = getelementptr inbounds [100 x i8], [100 x i8]* %56, i64 %58
  %60 = getelementptr inbounds [100 x i8], [100 x i8]* %59, i64 0, i64 0
  %61 = load i32, i32* %2, align 4
  %62 = sext i32 %61 to i64
  %63 = getelementptr inbounds i8, i8* %60, i64 %62
  store i8 %55, i8* %63, align 1
  br label %83

64:                                               ; preds = %42
  %65 = load i8*, i8** %9, align 8
  %66 = load i32, i32* %12, align 4
  %67 = sext i32 %66 to i64
  %68 = getelementptr inbounds i8, i8* %65, i64 %67
  %69 = load i8, i8* %68, align 1
  %70 = load [100 x i8]*, [100 x i8]** %11, align 8
  %71 = load i32, i32* %1, align 4
  %72 = sext i32 %71 to i64
  %73 = getelementptr inbounds [100 x i8], [100 x i8]* %70, i64 %72
  %74 = getelementptr inbounds [100 x i8], [100 x i8]* %73, i64 0, i64 0
  %75 = load i32, i32* %2, align 4
  %76 = sext i32 %75 to i64
  %77 = getelementptr inbounds i8, i8* %74, i64 %76
  store i8 %69, i8* %77, align 1
  %78 = load i32, i32* %12, align 4
  %79 = add nsw i32 %78, 1
  store i32 %79, i32* %12, align 4
  br label %80

80:                                               ; preds = %64
  %81 = load i32, i32* %2, align 4
  %82 = add nsw i32 %81, 1
  store i32 %82, i32* %2, align 4
  br label %34

83:                                               ; preds = %50, %34
  %84 = load [100 x i8]*, [100 x i8]** %11, align 8
  %85 = load i32, i32* %1, align 4
  %86 = sext i32 %85 to i64
  %87 = getelementptr inbounds [100 x i8], [100 x i8]* %84, i64 %86
  %88 = getelementptr inbounds [100 x i8], [100 x i8]* %87, i64 0, i64 0
  %89 = load i32, i32* %2, align 4
  %90 = sext i32 %89 to i64
  %91 = getelementptr inbounds i8, i8* %88, i64 %90
  store i8 0, i8* %91, align 1
  %92 = load i8*, i8** %9, align 8
  %93 = load i32, i32* %12, align 4
  %94 = sext i32 %93 to i64
  %95 = getelementptr inbounds i8, i8* %92, i64 %94
  %96 = load i8, i8* %95, align 1
  %97 = sext i8 %96 to i32
  %98 = icmp eq i32 %97, 0
  br i1 %98, label %99, label %100

99:                                               ; preds = %83
  br label %106

100:                                              ; preds = %83
  %101 = load i32, i32* %12, align 4
  %102 = add nsw i32 %101, 1
  store i32 %102, i32* %12, align 4
  br label %103

103:                                              ; preds = %100
  %104 = load i32, i32* %1, align 4
  %105 = add nsw i32 %104, 1
  store i32 %105, i32* %1, align 4
  br label %33

106:                                              ; preds = %99
  %107 = load i32, i32* %1, align 4
  %108 = add nsw i32 %107, 1
  store i32 %108, i32* %14, align 4
  store i32 0, i32* %1, align 4
  br label %109

109:                                              ; preds = %184, %106
  %110 = load i32, i32* %1, align 4
  %111 = load i32, i32* %14, align 4
  %112 = icmp slt i32 %110, %111
  br i1 %112, label %113, label %187

113:                                              ; preds = %109
  %114 = load i32, i32* %1, align 4
  %115 = sext i32 %114 to i64
  %116 = getelementptr inbounds [100 x [100 x i8]], [100 x [100 x i8]]* %7, i64 0, i64 %115
  %117 = getelementptr inbounds [100 x i8], [100 x i8]* %116, i64 0, i64 0
  %118 = call i64 @strlen(i8* %117) #4
  %119 = trunc i64 %118 to i32
  store i32 %119, i32* %15, align 4
  store i32 0, i32* %2, align 4
  br label %120

120:                                              ; preds = %145, %113
  %121 = load i32, i32* %2, align 4
  %122 = load i32, i32* %15, align 4
  %123 = add nsw i32 %122, 1
  %124 = icmp slt i32 %121, %123
  br i1 %124, label %125, label %148

125:                                              ; preds = %120
  %126 = load [100 x i8]*, [100 x i8]** %11, align 8
  %127 = load i32, i32* %1, align 4
  %128 = sext i32 %127 to i64
  %129 = getelementptr inbounds [100 x i8], [100 x i8]* %126, i64 %128
  %130 = getelementptr inbounds [100 x i8], [100 x i8]* %129, i64 0, i64 0
  %131 = load i32, i32* %2, align 4
  %132 = sext i32 %131 to i64
  %133 = getelementptr inbounds i8, i8* %130, i64 %132
  %134 = load i8, i8* %133, align 1
  %135 = sext i8 %134 to i32
  %136 = load i8*, i8** %10, align 8
  %137 = load i32, i32* %2, align 4
  %138 = sext i32 %137 to i64
  %139 = getelementptr inbounds i8, i8* %136, i64 %138
  %140 = load i8, i8* %139, align 1
  %141 = sext i8 %140 to i32
  %142 = icmp eq i32 %135, %141
  br i1 %142, label %143, label %144

143:                                              ; preds = %125
  store i32 1, i32* %3, align 4
  br label %145

144:                                              ; preds = %125
  store i32 0, i32* %3, align 4
  br label %148

145:                                              ; preds = %143
  %146 = load i32, i32* %2, align 4
  %147 = add nsw i32 %146, 1
  store i32 %147, i32* %2, align 4
  br label %120

148:                                              ; preds = %144, %120
  %149 = load i32, i32* %3, align 4
  %150 = icmp ne i32 %149, 0
  br i1 %150, label %151, label %182

151:                                              ; preds = %148
  store i32 0, i32* %12, align 4
  br label %152

152:                                              ; preds = %170, %151
  %153 = load i32, i32* %12, align 4
  %154 = load i32, i32* %13, align 4
  %155 = icmp slt i32 %153, %154
  br i1 %155, label %156, label %173

156:                                              ; preds = %152
  %157 = load i8*, i8** %8, align 8
  %158 = load i32, i32* %12, align 4
  %159 = sext i32 %158 to i64
  %160 = getelementptr inbounds i8, i8* %157, i64 %159
  %161 = load i8, i8* %160, align 1
  %162 = load [100 x i8]*, [100 x i8]** %11, align 8
  %163 = load i32, i32* %1, align 4
  %164 = sext i32 %163 to i64
  %165 = getelementptr inbounds [100 x i8], [100 x i8]* %162, i64 %164
  %166 = getelementptr inbounds [100 x i8], [100 x i8]* %165, i64 0, i64 0
  %167 = load i32, i32* %12, align 4
  %168 = sext i32 %167 to i64
  %169 = getelementptr inbounds i8, i8* %166, i64 %168
  store i8 %161, i8* %169, align 1
  br label %170

170:                                              ; preds = %156
  %171 = load i32, i32* %12, align 4
  %172 = add nsw i32 %171, 1
  store i32 %172, i32* %12, align 4
  br label %152

173:                                              ; preds = %152
  %174 = load [100 x i8]*, [100 x i8]** %11, align 8
  %175 = load i32, i32* %1, align 4
  %176 = sext i32 %175 to i64
  %177 = getelementptr inbounds [100 x i8], [100 x i8]* %174, i64 %176
  %178 = getelementptr inbounds [100 x i8], [100 x i8]* %177, i64 0, i64 0
  %179 = load i32, i32* %12, align 4
  %180 = sext i32 %179 to i64
  %181 = getelementptr inbounds i8, i8* %178, i64 %180
  store i8 0, i8* %181, align 1
  br label %183

182:                                              ; preds = %148
  br label %184

183:                                              ; preds = %173
  br label %184

184:                                              ; preds = %183, %182
  %185 = load i32, i32* %1, align 4
  %186 = add nsw i32 %185, 1
  store i32 %186, i32* %1, align 4
  br label %109

187:                                              ; preds = %109
  store i32 0, i32* %1, align 4
  br label %188

188:                                              ; preds = %203, %187
  %189 = load i32, i32* %1, align 4
  %190 = load i32, i32* %14, align 4
  %191 = icmp slt i32 %189, %190
  br i1 %191, label %192, label %206

192:                                              ; preds = %188
  %193 = load i32, i32* %1, align 4
  %194 = icmp sgt i32 %193, 0
  br i1 %194, label %195, label %197

195:                                              ; preds = %192
  %196 = call i32 (i8*, ...) @printf(i8* getelementptr inbounds ([2 x i8], [2 x i8]* @.str, i64 0, i64 0))
  br label %197

197:                                              ; preds = %195, %192
  %198 = load i32, i32* %1, align 4
  %199 = sext i32 %198 to i64
  %200 = getelementptr inbounds [100 x [100 x i8]], [100 x [100 x i8]]* %7, i64 0, i64 %199
  %201 = getelementptr inbounds [100 x i8], [100 x i8]* %200, i64 0, i64 0
  %202 = call i32 (i8*, ...) @printf(i8* getelementptr inbounds ([3 x i8], [3 x i8]* @.str.1, i64 0, i64 0), i8* %201)
  br label %203

203:                                              ; preds = %197
  %204 = load i32, i32* %1, align 4
  %205 = add nsw i32 %204, 1
  store i32 %205, i32* %1, align 4
  br label %188

206:                                              ; preds = %188
  %207 = call i32 (i8*, ...) @printf(i8* getelementptr inbounds ([2 x i8], [2 x i8]* @.str.2, i64 0, i64 0))
  ret void
}

; Function Attrs: argmemonly nounwind willreturn
declare void @llvm.memset.p0i8.i64(i8* nocapture writeonly, i8, i64, i1 immarg) #1

declare dso_local i32 @gets(...) #2

; Function Attrs: nounwind readonly
declare dso_local i64 @strlen(i8*) #3

declare dso_local i32 @printf(i8*, ...) #2


!llvm.module.flags = !{!0}
!llvm.ident = !{!1}

!0 = !{i32 1, !"wchar_size", i32 4}
!1 = !{!"clang version 10.0.0-4ubuntu1 "}
